target datalayout = "e-m:e-p270:32:32-p271:32:32-p272:64:64-i64:64-i128:128-f80:128-n8:16:32:64-S128"
target triple = "x86_64-pc-linux-gnu"

%struct.TLSX = type { i32, ptr, i32, i8, ptr }
%struct.SNI = type { i8, %union.anon, ptr, i8, i8 }
%union.anon = type { ptr }
%struct.SupportedCurve = type { i16, ptr }
%struct.PointFormat = type { i8, ptr }

; Function Attrs: nounwind uwtable
define internal void @TLSX_SNI_Free(ptr noundef %0, ptr noundef %1) #0 {
  %3 = alloca ptr, align 8
  %4 = alloca ptr, align 8
  %5 = alloca ptr, align 8
  %6 = alloca ptr, align 8
  store ptr %0, ptr %3, align 8, !tbaa !111
  store ptr %1, ptr %4, align 8, !tbaa !54
  %7 = load ptr, ptr %3, align 8, !tbaa !111
  %8 = icmp ne ptr %7, null
  br i1 %8, label %9, label %34

9:                                                ; preds = %2
  %10 = load ptr, ptr %3, align 8, !tbaa !111
  %11 = getelementptr inbounds nuw %struct.SNI, ptr %10, i32 0, i32 0
  %12 = load i8, ptr %11, align 8, !tbaa !115
  %13 = zext i8 %12 to i32
  switch i32 %13, label %25 [
    i32 0, label %14
  ]

14:                                               ; preds = %9
  br label %15

15:                                               ; preds = %14
  call void @llvm.lifetime.start.p0(i64 8, ptr %5) #8
  %16 = load ptr, ptr %3, align 8, !tbaa !111
  %17 = getelementptr inbounds nuw %struct.SNI, ptr %16, i32 0, i32 1
  %18 = load ptr, ptr %17, align 8, !tbaa !55
  store ptr %18, ptr %5, align 8, !tbaa !54
  %19 = load ptr, ptr %5, align 8, !tbaa !54
  %20 = icmp ne ptr %19, null
  br i1 %20, label %21, label %23

21:                                               ; preds = %15
  %22 = load ptr, ptr %5, align 8, !tbaa !54
  call void @wolfSSL_Free(ptr noundef %22)
  br label %23

23:                                               ; preds = %21, %15
  call void @llvm.lifetime.end.p0(i64 8, ptr %5) #8
  br label %24

24:                                               ; preds = %23
  br label %25

25:                                               ; preds = %9, %24
  br label %26

26:                                               ; preds = %25
  call void @llvm.lifetime.start.p0(i64 8, ptr %6) #8
  %27 = load ptr, ptr %3, align 8, !tbaa !111
  store ptr %27, ptr %6, align 8, !tbaa !54
  %28 = load ptr, ptr %6, align 8, !tbaa !54
  %29 = icmp ne ptr %28, null
  br i1 %29, label %30, label %32

30:                                               ; preds = %26
  %31 = load ptr, ptr %6, align 8, !tbaa !54
  call void @wolfSSL_Free(ptr noundef %31)
  br label %32

32:                                               ; preds = %30, %26
  call void @llvm.lifetime.end.p0(i64 8, ptr %6) #8
  br label %33

33:                                               ; preds = %32
  br label %34

34:                                               ; preds = %33, %2
  ret void
}

; Function Attrs: nounwind uwtable
define void @TLSX_SignatureAlgorithms_FreeAll(ptr noundef %0, ptr noundef %1) #0 {
  %3 = alloca ptr, align 8
  %4 = alloca ptr, align 8
  %5 = alloca ptr, align 8
  store ptr %0, ptr %3, align 8, !tbaa !176
  store ptr %1, ptr %4, align 8, !tbaa !54
  br label %6

6:                                                ; preds = %2
  call void @llvm.lifetime.start.p0(i64 8, ptr %5) #8
  %7 = load ptr, ptr %3, align 8, !tbaa !176
  store ptr %7, ptr %5, align 8, !tbaa !54
  %8 = load ptr, ptr %5, align 8, !tbaa !54
  %9 = icmp ne ptr %8, null
  br i1 %9, label %10, label %12

10:                                               ; preds = %6
  %11 = load ptr, ptr %5, align 8, !tbaa !54
  call void @wolfSSL_Free(ptr noundef %11)
  br label %12

12:                                               ; preds = %10, %6
  call void @llvm.lifetime.end.p0(i64 8, ptr %5) #8
  br label %13

13:                                               ; preds = %12
  ret void
}

; Function Attrs: nounwind uwtable
define internal void @TLSX_PointFormat_FreeAll(ptr noundef %0, ptr noundef %1) #0 {
  %3 = alloca ptr, align 8
  %4 = alloca ptr, align 8
  %5 = alloca ptr, align 8
  %6 = alloca ptr, align 8
  store ptr %0, ptr %3, align 8, !tbaa !159
  store ptr %1, ptr %4, align 8, !tbaa !54
  call void @llvm.lifetime.start.p0(i64 8, ptr %5) #8
  br label %7

7:                                                ; preds = %22, %2
  %8 = load ptr, ptr %3, align 8, !tbaa !159
  store ptr %8, ptr %5, align 8, !tbaa !159
  %9 = icmp ne ptr %8, null
  br i1 %9, label %10, label %23

10:                                               ; preds = %7
  %11 = load ptr, ptr %5, align 8, !tbaa !159
  %12 = getelementptr inbounds nuw %struct.PointFormat, ptr %11, i32 0, i32 1
  %13 = load ptr, ptr %12, align 8, !tbaa !165
  store ptr %13, ptr %3, align 8, !tbaa !159
  br label %14

14:                                               ; preds = %10
  call void @llvm.lifetime.start.p0(i64 8, ptr %6) #8
  %15 = load ptr, ptr %5, align 8, !tbaa !159
  store ptr %15, ptr %6, align 8, !tbaa !54
  %16 = load ptr, ptr %6, align 8, !tbaa !54
  %17 = icmp ne ptr %16, null
  br i1 %17, label %18, label %20

18:                                               ; preds = %14
  %19 = load ptr, ptr %6, align 8, !tbaa !54
  call void @wolfSSL_Free(ptr noundef %19)
  br label %20

20:                                               ; preds = %18, %14
  call void @llvm.lifetime.end.p0(i64 8, ptr %6) #8
  br label %21

21:                                               ; preds = %20
  br label %22

22:                                               ; preds = %21
  br label %7, !llvm.loop !209

23:                                               ; preds = %7
  call void @llvm.lifetime.end.p0(i64 8, ptr %5) #8
  ret void
}

; Function Attrs: nounwind uwtable
define internal void @TLSX_SupportedCurve_FreeAll(ptr noundef %0, ptr noundef %1) #0 {
  %3 = alloca ptr, align 8
  %4 = alloca ptr, align 8
  %5 = alloca ptr, align 8
  %6 = alloca ptr, align 8
  store ptr %0, ptr %3, align 8, !tbaa !124
  store ptr %1, ptr %4, align 8, !tbaa !54
  call void @llvm.lifetime.start.p0(i64 8, ptr %5) #8
  br label %7

7:                                                ; preds = %22, %2
  %8 = load ptr, ptr %3, align 8, !tbaa !124
  store ptr %8, ptr %5, align 8, !tbaa !124
  %9 = icmp ne ptr %8, null
  br i1 %9, label %10, label %23

10:                                               ; preds = %7
  %11 = load ptr, ptr %5, align 8, !tbaa !124
  %12 = getelementptr inbounds nuw %struct.SupportedCurve, ptr %11, i32 0, i32 1
  %13 = load ptr, ptr %12, align 8, !tbaa !127
  store ptr %13, ptr %3, align 8, !tbaa !124
  br label %14

14:                                               ; preds = %10
  call void @llvm.lifetime.start.p0(i64 8, ptr %6) #8
  %15 = load ptr, ptr %5, align 8, !tbaa !124
  store ptr %15, ptr %6, align 8, !tbaa !54
  %16 = load ptr, ptr %6, align 8, !tbaa !54
  %17 = icmp ne ptr %16, null
  br i1 %17, label %18, label %20

18:                                               ; preds = %14
  %19 = load ptr, ptr %6, align 8, !tbaa !54
  call void @wolfSSL_Free(ptr noundef %19)
  br label %20

20:                                               ; preds = %18, %14
  call void @llvm.lifetime.end.p0(i64 8, ptr %6) #8
  br label %21

21:                                               ; preds = %20
  br label %22

22:                                               ; preds = %21
  br label %7, !llvm.loop !129

23:                                               ; preds = %7
  call void @llvm.lifetime.end.p0(i64 8, ptr %5) #8
  ret void
}

; Function Attrs: nounwind uwtable
define internal void @TLSX_SNI_FreeAll(ptr noundef %0, ptr noundef %1) #0 {
  %3 = alloca ptr, align 8
  %4 = alloca ptr, align 8
  %5 = alloca ptr, align 8
  store ptr %0, ptr %3, align 8, !tbaa !111
  store ptr %1, ptr %4, align 8, !tbaa !54
  call void @llvm.lifetime.start.p0(i64 8, ptr %5) #8
  br label %6

6:                                                ; preds = %9, %2
  %7 = load ptr, ptr %3, align 8, !tbaa !111
  store ptr %7, ptr %5, align 8, !tbaa !111
  %8 = icmp ne ptr %7, null
  br i1 %8, label %9, label %15

9:                                                ; preds = %6
  %10 = load ptr, ptr %5, align 8, !tbaa !111
  %11 = getelementptr inbounds nuw %struct.SNI, ptr %10, i32 0, i32 2
  %12 = load ptr, ptr %11, align 8, !tbaa !116
  store ptr %12, ptr %3, align 8, !tbaa !111
  %13 = load ptr, ptr %5, align 8, !tbaa !111
  %14 = load ptr, ptr %4, align 8, !tbaa !54
  call void @TLSX_SNI_Free(ptr noundef %13, ptr noundef %14)
  br label %6, !llvm.loop !208

15:                                               ; preds = %6
  call void @llvm.lifetime.end.p0(i64 8, ptr %5) #8
  ret void
}

; Function Attrs: nounwind uwtable
define void @TLSX_FreeAll(ptr noundef %0, ptr noundef %1) #0 {
  %3 = alloca ptr, align 8
  %4 = alloca ptr, align 8
  %5 = alloca ptr, align 8
  %6 = alloca ptr, align 8
  store ptr %0, ptr %3, align 8, !tbaa !77
  store ptr %1, ptr %4, align 8, !tbaa !54
  call void @llvm.lifetime.start.p0(i64 8, ptr %5) #8
  br label %7

7:                                                ; preds = %136, %2
  %8 = load ptr, ptr %3, align 8, !tbaa !77
  store ptr %8, ptr %5, align 8, !tbaa !77
  %9 = icmp ne ptr %8, null
  br i1 %9, label %10, label %137

10:                                               ; preds = %7
  %11 = load ptr, ptr %5, align 8, !tbaa !77
  %12 = getelementptr inbounds nuw %struct.TLSX, ptr %11, i32 0, i32 4
  %13 = load ptr, ptr %12, align 8, !tbaa !80
  store ptr %13, ptr %3, align 8, !tbaa !77
  %14 = load ptr, ptr %5, align 8, !tbaa !77
  %15 = getelementptr inbounds nuw %struct.TLSX, ptr %14, i32 0, i32 0
  %16 = load i32, ptr %15, align 8, !tbaa !78
  switch i32 %16, label %126 [
    i32 0, label %17
    i32 3, label %25
    i32 1, label %32
    i32 23, label %39
    i32 4, label %43
    i32 10, label %47
    i32 11, label %55
    i32 5, label %63
    i32 17, label %70
    i32 65281, label %77
    i32 35, label %84
    i32 16, label %91
    i32 13, label %98
    i32 22, label %106
    i32 51, label %110
    i32 43, label %118
    i32 50, label %122
  ]

17:                                               ; preds = %10
  br label %18

18:                                               ; preds = %17
  br label %19

19:                                               ; preds = %18
  br label %20

20:                                               ; preds = %19
  %21 = load ptr, ptr %5, align 8, !tbaa !77
  %22 = getelementptr inbounds nuw %struct.TLSX, ptr %21, i32 0, i32 1
  %23 = load ptr, ptr %22, align 8, !tbaa !103
  %24 = load ptr, ptr %4, align 8, !tbaa !54
  call void @TLSX_SNI_FreeAll(ptr noundef %23, ptr noundef %24)
  br label %127

25:                                               ; preds = %10
  br label %26

26:                                               ; preds = %25
  br label %27

27:                                               ; preds = %26
  br label %28

28:                                               ; preds = %27
  br label %29

29:                                               ; preds = %28
  br label %30

30:                                               ; preds = %29
  br label %31

31:                                               ; preds = %30
  br label %127

32:                                               ; preds = %10
  br label %33

33:                                               ; preds = %32
  br label %34

34:                                               ; preds = %33
  br label %35

35:                                               ; preds = %34
  br label %36

36:                                               ; preds = %35
  br label %37

37:                                               ; preds = %36
  br label %38

38:                                               ; preds = %37
  br label %127

39:                                               ; preds = %10
  br label %40

40:                                               ; preds = %39
  br label %41

41:                                               ; preds = %40
  br label %42

42:                                               ; preds = %41
  br label %127

43:                                               ; preds = %10
  br label %44

44:                                               ; preds = %43
  br label %45

45:                                               ; preds = %44
  br label %46

46:                                               ; preds = %45
  br label %127

47:                                               ; preds = %10
  br label %48

48:                                               ; preds = %47
  br label %49

49:                                               ; preds = %48
  br label %50

50:                                               ; preds = %49
  %51 = load ptr, ptr %5, align 8, !tbaa !77
  %52 = getelementptr inbounds nuw %struct.TLSX, ptr %51, i32 0, i32 1
  %53 = load ptr, ptr %52, align 8, !tbaa !103
  %54 = load ptr, ptr %4, align 8, !tbaa !54
  call void @TLSX_SupportedCurve_FreeAll(ptr noundef %53, ptr noundef %54)
  br label %127

55:                                               ; preds = %10
  br label %56

56:                                               ; preds = %55
  br label %57

57:                                               ; preds = %56
  br label %58

58:                                               ; preds = %57
  %59 = load ptr, ptr %5, align 8, !tbaa !77
  %60 = getelementptr inbounds nuw %struct.TLSX, ptr %59, i32 0, i32 1
  %61 = load ptr, ptr %60, align 8, !tbaa !103
  %62 = load ptr, ptr %4, align 8, !tbaa !54
  call void @TLSX_PointFormat_FreeAll(ptr noundef %61, ptr noundef %62)
  br label %127

63:                                               ; preds = %10
  br label %64

64:                                               ; preds = %63
  br label %65

65:                                               ; preds = %64
  br label %66

66:                                               ; preds = %65
  br label %67

67:                                               ; preds = %66
  br label %68

68:                                               ; preds = %67
  br label %69

69:                                               ; preds = %68
  br label %127

70:                                               ; preds = %10
  br label %71

71:                                               ; preds = %70
  br label %72

72:                                               ; preds = %71
  br label %73

73:                                               ; preds = %72
  br label %74

74:                                               ; preds = %73
  br label %75

75:                                               ; preds = %74
  br label %76

76:                                               ; preds = %75
  br label %127

77:                                               ; preds = %10
  br label %78

78:                                               ; preds = %77
  br label %79

79:                                               ; preds = %78
  br label %80

80:                                               ; preds = %79
  br label %81

81:                                               ; preds = %80
  br label %82

82:                                               ; preds = %81
  br label %83

83:                                               ; preds = %82
  br label %127

84:                                               ; preds = %10
  br label %85

85:                                               ; preds = %84
  br label %86

86:                                               ; preds = %85
  br label %87

87:                                               ; preds = %86
  br label %88

88:                                               ; preds = %87
  br label %89

89:                                               ; preds = %88
  br label %90

90:                                               ; preds = %89
  br label %127

91:                                               ; preds = %10
  br label %92

92:                                               ; preds = %91
  br label %93

93:                                               ; preds = %92
  br label %94

94:                                               ; preds = %93
  br label %95

95:                                               ; preds = %94
  br label %96

96:                                               ; preds = %95
  br label %97

97:                                               ; preds = %96
  br label %127

98:                                               ; preds = %10
  br label %99

99:                                               ; preds = %98
  br label %100

100:                                              ; preds = %99
  br label %101

101:                                              ; preds = %100
  %102 = load ptr, ptr %5, align 8, !tbaa !77
  %103 = getelementptr inbounds nuw %struct.TLSX, ptr %102, i32 0, i32 1
  %104 = load ptr, ptr %103, align 8, !tbaa !103
  %105 = load ptr, ptr %4, align 8, !tbaa !54
  call void @TLSX_SignatureAlgorithms_FreeAll(ptr noundef %104, ptr noundef %105)
  br label %127

106:                                              ; preds = %10
  br label %107

107:                                              ; preds = %106
  br label %108

108:                                              ; preds = %107
  br label %109

109:                                              ; preds = %108
  br label %127

110:                                              ; preds = %10
  br label %111

111:                                              ; preds = %110
  br label %112

112:                                              ; preds = %111
  br label %113

113:                                              ; preds = %112
  %114 = load ptr, ptr %5, align 8, !tbaa !77
  %115 = getelementptr inbounds nuw %struct.TLSX, ptr %114, i32 0, i32 1
  %116 = load ptr, ptr %115, align 8, !tbaa !103
  %117 = load ptr, ptr %4, align 8, !tbaa !54
  call void @TLSX_KeyShare_FreeAll(ptr noundef %116, ptr noundef %117)
  br label %127

118:                                              ; preds = %10
  br label %119

119:                                              ; preds = %118
  br label %120

120:                                              ; preds = %119
  br label %121

121:                                              ; preds = %120
  br label %127

122:                                              ; preds = %10
  br label %123

123:                                              ; preds = %122
  br label %124

124:                                              ; preds = %123
  br label %125

125:                                              ; preds = %124
  br label %127

126:                                              ; preds = %10
  br label %127

127:                                              ; preds = %126, %125, %121, %113, %109, %101, %97, %90, %83, %76, %69, %58, %50, %46, %42, %38, %31, %20
  br label %128

128:                                              ; preds = %127
  call void @llvm.lifetime.start.p0(i64 8, ptr %6) #8
  %129 = load ptr, ptr %5, align 8, !tbaa !77
  store ptr %129, ptr %6, align 8, !tbaa !54
  %130 = load ptr, ptr %6, align 8, !tbaa !54
  %131 = icmp ne ptr %130, null
  br i1 %131, label %132, label %134

132:                                              ; preds = %128
  %133 = load ptr, ptr %6, align 8, !tbaa !54
  call void @wolfSSL_Free(ptr noundef %133)
  br label %134

134:                                              ; preds = %132, %128
  call void @llvm.lifetime.end.p0(i64 8, ptr %6) #8
  br label %135

135:                                              ; preds = %134
  br label %136

136:                                              ; preds = %135
  br label %7, !llvm.loop !105

137:                                              ; preds = %7
  call void @llvm.lifetime.end.p0(i64 8, ptr %5) #8
  ret void
}