; Function Attrs: nounwind uwtable
define void @TLSX_FreeAll(ptr noundef %0, ptr readnone captures(none) %1) local_unnamed_addr #0 {
  %.not27 = icmp eq ptr %0, null
  br i1 %.not27, label %._crit_edge, label %.lr.ph

.lr.ph:                                           ; preds = %2, %TLSX_SNI_FreeAll.exit
  %.028 = phi ptr [ %4, %TLSX_SNI_FreeAll.exit ], [ %0, %2 ]
  %3 = getelementptr inbounds nuw i8, ptr %.028, i64 24
  %4 = load ptr, ptr %3, align 8, !tbaa !63
  %5 = load i32, ptr %.028, align 8, !tbaa !60
  switch i32 %5, label %TLSX_SNI_FreeAll.exit [
    i32 0, label %6
    i32 51, label %30
    i32 13, label %26
    i32 11, label %21
    i32 10, label %16
  ]

6:                                                ; preds = %.lr.ph
  %7 = getelementptr inbounds nuw i8, ptr %.028, i64 8
  %8 = load ptr, ptr %7, align 8, !tbaa !82
  %.not1.i = icmp eq ptr %8, null
  br i1 %.not1.i, label %TLSX_SNI_FreeAll.exit, label %.lr.ph.i

.lr.ph.i:                                         ; preds = %6, %TLSX_SNI_Free.exit.i
  %.02.i = phi ptr [ %10, %TLSX_SNI_Free.exit.i ], [ %8, %6 ]
  %9 = getelementptr inbounds nuw i8, ptr %.02.i, i64 16
  %10 = load ptr, ptr %9, align 8, !tbaa !85
  %11 = load i8, ptr %.02.i, align 8, !tbaa !88
  %cond.i.i = icmp eq i8 %11, 0
  br i1 %cond.i.i, label %12, label %TLSX_SNI_Free.exit.i

12:                                               ; preds = %.lr.ph.i
  %13 = getelementptr inbounds nuw i8, ptr %.02.i, i64 8
  %14 = load ptr, ptr %13, align 8, !tbaa !51
  %.not.i.i = icmp eq ptr %14, null
  br i1 %.not.i.i, label %TLSX_SNI_Free.exit.i, label %15

15:                                               ; preds = %12
  tail call void @wolfSSL_Free(ptr noundef nonnull %14) #17
  br label %TLSX_SNI_Free.exit.i

TLSX_SNI_Free.exit.i:                             ; preds = %15, %12, %.lr.ph.i
  tail call void @wolfSSL_Free(ptr noundef nonnull %.02.i) #17
  %.not.i = icmp eq ptr %10, null
  br i1 %.not.i, label %TLSX_SNI_FreeAll.exit, label %.lr.ph.i, !llvm.loop !89

16:                                               ; preds = %.lr.ph
  %17 = getelementptr inbounds nuw i8, ptr %.028, i64 8
  %18 = load ptr, ptr %17, align 8, !tbaa !82
  %.not1.i16 = icmp eq ptr %18, null
  br i1 %.not1.i16, label %TLSX_SNI_FreeAll.exit, label %.lr.ph.i17

.lr.ph.i17:                                       ; preds = %16, %.lr.ph.i17
  %.02.i18 = phi ptr [ %20, %.lr.ph.i17 ], [ %18, %16 ]
  %19 = getelementptr inbounds nuw i8, ptr %.02.i18, i64 8
  %20 = load ptr, ptr %19, align 8, !tbaa !90
  tail call void @wolfSSL_Free(ptr noundef nonnull %.02.i18) #17
  %.not.i19 = icmp eq ptr %20, null
  br i1 %.not.i19, label %TLSX_SNI_FreeAll.exit, label %.lr.ph.i17, !llvm.loop !93

21:                                               ; preds = %.lr.ph
  %22 = getelementptr inbounds nuw i8, ptr %.028, i64 8
  %23 = load ptr, ptr %22, align 8, !tbaa !82
  %.not1.i20 = icmp eq ptr %23, null
  br i1 %.not1.i20, label %TLSX_SNI_FreeAll.exit, label %.lr.ph.i21

.lr.ph.i21:                                       ; preds = %21, %.lr.ph.i21
  %.02.i22 = phi ptr [ %25, %.lr.ph.i21 ], [ %23, %21 ]
  %24 = getelementptr inbounds nuw i8, ptr %.02.i22, i64 8
  %25 = load ptr, ptr %24, align 8, !tbaa !94
  tail call void @wolfSSL_Free(ptr noundef nonnull %.02.i22) #17
  %.not.i23 = icmp eq ptr %25, null
  br i1 %.not.i23, label %TLSX_SNI_FreeAll.exit, label %.lr.ph.i21, !llvm.loop !97

26:                                               ; preds = %.lr.ph
  %27 = getelementptr inbounds nuw i8, ptr %.028, i64 8
  %28 = load ptr, ptr %27, align 8, !tbaa !82
  %.not.i24 = icmp eq ptr %28, null
  br i1 %.not.i24, label %TLSX_SNI_FreeAll.exit, label %29

29:                                               ; preds = %26
  tail call void @wolfSSL_Free(ptr noundef nonnull %28) #17
  br label %TLSX_SNI_FreeAll.exit

30:                                               ; preds = %.lr.ph
  %31 = getelementptr inbounds nuw i8, ptr %.028, i64 8
  %32 = load ptr, ptr %31, align 8, !tbaa !82
  tail call fastcc void @TLSX_KeyShare_FreeAll(ptr noundef %32)
  br label %TLSX_SNI_FreeAll.exit

TLSX_SNI_FreeAll.exit:                            ; preds = %.lr.ph.i17, %.lr.ph.i21, %TLSX_SNI_Free.exit.i, %29, %26, %21, %16, %6, %.lr.ph, %30
  tail call void @wolfSSL_Free(ptr noundef nonnull %.028) #17
  %.not = icmp eq ptr %4, null
  br i1 %.not, label %._crit_edge, label %.lr.ph, !llvm.loop !98

._crit_edge:                                      ; preds = %TLSX_SNI_FreeAll.exit, %2
  ret void
}